; Function Attrs: mustprogress uwtable
define void @uregex_close_75(ptr noundef %re2) local_unnamed_addr #5 {
if.end.i:
  %cmp.i = icmp eq ptr %re2, null
  br i1 %cmp.i, label %delete.end, label %lor.lhs.false.i

lor.lhs.false.i:                                  ; preds = %if.end.i
  %0 = load i32, ptr %re2, align 8
  %cmp1.not.i.not = icmp eq i32 %0, 1919252592
  br i1 %cmp1.not.i.not, label %delete.notnull, label %delete.end

delete.notnull:                                   ; preds = %lor.lhs.false.i
  tail call void @_ZN6icu_7517RegularExpressionD1Ev(ptr noundef nonnull align 8 dereferenceable(61) %re2) #10
  tail call void @_ZN6icu_757UMemorydlEPv(ptr noundef nonnull %re2) #10
  br label %delete.end

delete.end:                                       ; preds = %lor.lhs.false.i, %if.end.i, %delete.notnull
  ret void
}